target datalayout = "e-m:e-p270:32:32-p271:32:32-p272:64:64-i64:64-i128:128-f80:128-n8:16:32:64-S128"
target triple = "x86_64-pc-linux-gnu"

%"class.std::reverse_iterator" = type { %"class.__gnu_cxx::__normal_iterator.11" }
%"class.__gnu_cxx::__normal_iterator.11" = type { ptr }
%"struct.__gnu_cxx::__ops::_Iter_comp_iter.38" = type { i8 }

; Function Attrs: mustprogress nounwind uwtable
define linkonce_odr dso_local void @_ZN9__gnu_cxx17__normal_iteratorIPP26cmCTestBinPackerAllocationSt6vectorIS2_SaIS2_EEEC2ERKS3_(ptr noundef nonnull align 8 dereferenceable(8) %0, ptr noundef nonnull align 8 dereferenceable(8) %1) unnamed_addr #0 comdat align 2 {
  %3 = alloca ptr, align 8
  %4 = alloca ptr, align 8
  store ptr %0, ptr %3, align 8, !tbaa !78
  store ptr %1, ptr %4, align 8, !tbaa !80
  %5 = load ptr, ptr %3, align 8
  %6 = getelementptr inbounds nuw %"class.__gnu_cxx::__normal_iterator.11", ptr %5, i32 0, i32 0
  %7 = load ptr, ptr %4, align 8, !tbaa !80
  %8 = load ptr, ptr %7, align 8, !tbaa !31
  store ptr %8, ptr %6, align 8, !tbaa !82
  ret void
}

; Function Attrs: mustprogress nounwind uwtable
define linkonce_odr dso_local noundef nonnull align 8 dereferenceable(8) ptr @_ZNK9__gnu_cxx17__normal_iteratorIPP26cmCTestBinPackerAllocationSt6vectorIS2_SaIS2_EEE4baseEv(ptr noundef nonnull align 8 dereferenceable(8) %0) #0 comdat align 2 {
  %2 = alloca ptr, align 8
  store ptr %0, ptr %2, align 8, !tbaa !78
  %3 = load ptr, ptr %2, align 8
  %4 = getelementptr inbounds nuw %"class.__gnu_cxx::__normal_iterator.11", ptr %3, i32 0, i32 0
  ret ptr %4
}

; Function Attrs: mustprogress nounwind uwtable
define linkonce_odr dso_local void @_ZNSt16reverse_iteratorIN9__gnu_cxx17__normal_iteratorIPP26cmCTestBinPackerAllocationSt6vectorIS3_SaIS3_EEEEEC2ES8_(ptr noundef nonnull align 8 dereferenceable(8) %0, ptr %1) unnamed_addr #0 comdat align 2 {
  %3 = alloca %"class.__gnu_cxx::__normal_iterator.11", align 8
  %4 = alloca ptr, align 8
  %5 = getelementptr inbounds nuw %"class.__gnu_cxx::__normal_iterator.11", ptr %3, i32 0, i32 0
  store ptr %1, ptr %5, align 8
  store ptr %0, ptr %4, align 8, !tbaa !44
  %6 = load ptr, ptr %4, align 8
  %7 = getelementptr inbounds nuw %"class.std::reverse_iterator", ptr %6, i32 0, i32 0
  call void @llvm.memcpy.p0.p0.i64(ptr align 8 %7, ptr align 8 %3, i64 8, i1 false), !tbaa.struct !85
  ret void
}

; Function Attrs: mustprogress nounwind uwtable
define linkonce_odr dso_local ptr @_ZNK9__gnu_cxx17__normal_iteratorIPP26cmCTestBinPackerAllocationSt6vectorIS2_SaIS2_EEEmiEl(ptr noundef nonnull align 8 dereferenceable(8) %0, i64 noundef %1) #0 comdat align 2 {
  %3 = alloca %"class.__gnu_cxx::__normal_iterator.11", align 8
  %4 = alloca ptr, align 8
  %5 = alloca i64, align 8
  %6 = alloca ptr, align 8
  store ptr %0, ptr %4, align 8, !tbaa !78
  store i64 %1, ptr %5, align 8, !tbaa !27
  %7 = load ptr, ptr %4, align 8
  call void @llvm.lifetime.start.p0(i64 8, ptr %6) #18
  %8 = getelementptr inbounds nuw %"class.__gnu_cxx::__normal_iterator.11", ptr %7, i32 0, i32 0
  %9 = load ptr, ptr %8, align 8, !tbaa !82
  %10 = load i64, ptr %5, align 8, !tbaa !27
  %11 = sub i64 0, %10
  %12 = getelementptr inbounds ptr, ptr %9, i64 %11
  store ptr %12, ptr %6, align 8, !tbaa !31
  call void @_ZN9__gnu_cxx17__normal_iteratorIPP26cmCTestBinPackerAllocationSt6vectorIS2_SaIS2_EEEC2ERKS3_(ptr noundef nonnull align 8 dereferenceable(8) %3, ptr noundef nonnull align 8 dereferenceable(8) %6) #18
  call void @llvm.lifetime.end.p0(i64 8, ptr %6) #18
  %13 = getelementptr inbounds nuw %"class.__gnu_cxx::__normal_iterator.11", ptr %3, i32 0, i32 0
  %14 = load ptr, ptr %13, align 8
  ret ptr %14
}

; Function Attrs: inlinehint mustprogress nounwind uwtable
define linkonce_odr dso_local noundef i64 @_ZN9__gnu_cxxmiIPP26cmCTestBinPackerAllocationSt6vectorIS2_SaIS2_EEEENS_17__normal_iteratorIT_T0_E15difference_typeERKSA_SD_(ptr noundef nonnull align 8 dereferenceable(8) %0, ptr noundef nonnull align 8 dereferenceable(8) %1) #1 comdat {
  %3 = alloca ptr, align 8
  %4 = alloca ptr, align 8
  store ptr %0, ptr %3, align 8, !tbaa !78
  store ptr %1, ptr %4, align 8, !tbaa !78
  %5 = load ptr, ptr %3, align 8, !tbaa !78
  %6 = call noundef nonnull align 8 dereferenceable(8) ptr @_ZNK9__gnu_cxx17__normal_iteratorIPP26cmCTestBinPackerAllocationSt6vectorIS2_SaIS2_EEE4baseEv(ptr noundef nonnull align 8 dereferenceable(8) %5) #18
  %7 = load ptr, ptr %6, align 8, !tbaa !31
  %8 = load ptr, ptr %4, align 8, !tbaa !78
  %9 = call noundef nonnull align 8 dereferenceable(8) ptr @_ZNK9__gnu_cxx17__normal_iteratorIPP26cmCTestBinPackerAllocationSt6vectorIS2_SaIS2_EEE4baseEv(ptr noundef nonnull align 8 dereferenceable(8) %8) #18
  %10 = load ptr, ptr %9, align 8, !tbaa !31
  %11 = ptrtoint ptr %7 to i64
  %12 = ptrtoint ptr %10 to i64
  %13 = sub i64 %11, %12
  %14 = sdiv exact i64 %13, 8
  ret i64 %14
}

; Function Attrs: mustprogress nounwind uwtable
define linkonce_odr dso_local ptr @_ZNKSt16reverse_iteratorIN9__gnu_cxx17__normal_iteratorIPP26cmCTestBinPackerAllocationSt6vectorIS3_SaIS3_EEEEE4baseEv(ptr noundef nonnull align 8 dereferenceable(8) %0) #0 comdat align 2 {
  %2 = alloca %"class.__gnu_cxx::__normal_iterator.11", align 8
  %3 = alloca ptr, align 8
  store ptr %0, ptr %3, align 8, !tbaa !44
  %4 = load ptr, ptr %3, align 8
  %5 = getelementptr inbounds nuw %"class.std::reverse_iterator", ptr %4, i32 0, i32 0
  call void @llvm.memcpy.p0.p0.i64(ptr align 8 %2, ptr align 8 %5, i64 8, i1 false), !tbaa.struct !85
  %6 = getelementptr inbounds nuw %"class.__gnu_cxx::__normal_iterator.11", ptr %2, i32 0, i32 0
  %7 = load ptr, ptr %6, align 8
  ret ptr %7
}

; Function Attrs: mustprogress nounwind uwtable
define linkonce_odr dso_local void @_ZNSt16reverse_iteratorIN9__gnu_cxx17__normal_iteratorIPP26cmCTestBinPackerAllocationSt6vectorIS3_SaIS3_EEEEEC2ERKS9_(ptr noundef nonnull align 8 dereferenceable(8) %0, ptr noundef nonnull align 8 dereferenceable(8) %1) unnamed_addr #0 comdat align 2 {
  %3 = alloca ptr, align 8
  %4 = alloca ptr, align 8
  store ptr %0, ptr %3, align 8, !tbaa !44
  store ptr %1, ptr %4, align 8, !tbaa !44
  %5 = load ptr, ptr %3, align 8
  %6 = getelementptr inbounds nuw %"class.std::reverse_iterator", ptr %5, i32 0, i32 0
  %7 = load ptr, ptr %4, align 8, !tbaa !44
  %8 = getelementptr inbounds nuw %"class.std::reverse_iterator", ptr %7, i32 0, i32 0
  call void @llvm.memcpy.p0.p0.i64(ptr align 8 %6, ptr align 8 %8, i64 8, i1 false), !tbaa.struct !85
  ret void
}

; Function Attrs: mustprogress nounwind uwtable
define linkonce_odr dso_local void @_ZNKSt16reverse_iteratorIN9__gnu_cxx17__normal_iteratorIPP26cmCTestBinPackerAllocationSt6vectorIS3_SaIS3_EEEEEplEl(ptr dead_on_unwind noalias writable sret(%"class.std::reverse_iterator") align 8 %0, ptr noundef nonnull align 8 dereferenceable(8) %1, i64 noundef %2) #0 comdat align 2 {
  %4 = alloca ptr, align 8
  %5 = alloca ptr, align 8
  %6 = alloca i64, align 8
  %7 = alloca %"class.__gnu_cxx::__normal_iterator.11", align 8
  store ptr %0, ptr %4, align 8
  store ptr %1, ptr %5, align 8, !tbaa !44
  store i64 %2, ptr %6, align 8, !tbaa !27
  %8 = load ptr, ptr %5, align 8
  %9 = getelementptr inbounds nuw %"class.std::reverse_iterator", ptr %8, i32 0, i32 0
  %10 = load i64, ptr %6, align 8, !tbaa !27
  %11 = call ptr @_ZNK9__gnu_cxx17__normal_iteratorIPP26cmCTestBinPackerAllocationSt6vectorIS2_SaIS2_EEEmiEl(ptr noundef nonnull align 8 dereferenceable(8) %9, i64 noundef %10) #18
  %12 = getelementptr inbounds nuw %"class.__gnu_cxx::__normal_iterator.11", ptr %7, i32 0, i32 0
  store ptr %11, ptr %12, align 8
  %13 = getelementptr inbounds nuw %"class.__gnu_cxx::__normal_iterator.11", ptr %7, i32 0, i32 0
  %14 = load ptr, ptr %13, align 8
  call void @_ZNSt16reverse_iteratorIN9__gnu_cxx17__normal_iteratorIPP26cmCTestBinPackerAllocationSt6vectorIS3_SaIS3_EEEEEC2ES8_(ptr noundef nonnull align 8 dereferenceable(8) %0, ptr %14) #18
  ret void
}

; Function Attrs: inlinehint mustprogress nounwind uwtable
define linkonce_odr dso_local noundef i64 @_ZStmiIN9__gnu_cxx17__normal_iteratorIPP26cmCTestBinPackerAllocationSt6vectorIS3_SaIS3_EEEES8_EDTmicldtfp0_4baseEcldtfp_4baseEERKSt16reverse_iteratorIT_ERKSA_IT0_E(ptr noundef nonnull align 8 dereferenceable(8) %0, ptr noundef nonnull align 8 dereferenceable(8) %1) #1 comdat {
  %3 = alloca ptr, align 8
  %4 = alloca ptr, align 8
  %5 = alloca %"class.__gnu_cxx::__normal_iterator.11", align 8
  %6 = alloca %"class.__gnu_cxx::__normal_iterator.11", align 8
  store ptr %0, ptr %3, align 8, !tbaa !44
  store ptr %1, ptr %4, align 8, !tbaa !44
  call void @llvm.lifetime.start.p0(i64 8, ptr %5) #18
  %7 = load ptr, ptr %4, align 8, !tbaa !44
  %8 = call ptr @_ZNKSt16reverse_iteratorIN9__gnu_cxx17__normal_iteratorIPP26cmCTestBinPackerAllocationSt6vectorIS3_SaIS3_EEEEE4baseEv(ptr noundef nonnull align 8 dereferenceable(8) %7) #18
  %9 = getelementptr inbounds nuw %"class.__gnu_cxx::__normal_iterator.11", ptr %5, i32 0, i32 0
  store ptr %8, ptr %9, align 8
  call void @llvm.lifetime.start.p0(i64 8, ptr %6) #18
  %10 = load ptr, ptr %3, align 8, !tbaa !44
  %11 = call ptr @_ZNKSt16reverse_iteratorIN9__gnu_cxx17__normal_iteratorIPP26cmCTestBinPackerAllocationSt6vectorIS3_SaIS3_EEEEE4baseEv(ptr noundef nonnull align 8 dereferenceable(8) %10) #18
  %12 = getelementptr inbounds nuw %"class.__gnu_cxx::__normal_iterator.11", ptr %6, i32 0, i32 0
  store ptr %11, ptr %12, align 8
  %13 = call noundef i64 @_ZN9__gnu_cxxmiIPP26cmCTestBinPackerAllocationSt6vectorIS2_SaIS2_EEEENS_17__normal_iteratorIT_T0_E15difference_typeERKSA_SD_(ptr noundef nonnull align 8 dereferenceable(8) %5, ptr noundef nonnull align 8 dereferenceable(8) %6) #18
  call void @llvm.lifetime.end.p0(i64 8, ptr %6) #18
  call void @llvm.lifetime.end.p0(i64 8, ptr %5) #18
  ret i64 %13
}

; Function Attrs: mustprogress uwtable
define internal void @_ZSt22__stable_sort_adaptiveISt16reverse_iteratorIN9__gnu_cxx17__normal_iteratorIPP26cmCTestBinPackerAllocationSt6vectorIS4_SaIS4_EEEEES5_lNS1_5__ops15_Iter_comp_iterIZN12_GLOBAL__N_122AllocateCTestResourcesINSD_23BlockAllocationStrategyEEEbRKSt3mapINSt7__cxx1112basic_stringIcSt11char_traitsIcESaIcEEEN24cmCTestResourceAllocator8ResourceESt4lessISM_ESaISt4pairIKSM_SO_EEERS6_IS3_SaIS3_EEEUlS4_S4_E_EEEvT_S13_T0_T1_T2_(ptr noundef %0, ptr noundef %1, ptr noundef %2, i64 noundef %3) #2 {
  %5 = alloca %"struct.__gnu_cxx::__ops::_Iter_comp_iter.38", align 1
  %6 = alloca ptr, align 8
  %7 = alloca ptr, align 8
  %8 = alloca ptr, align 8
  %9 = alloca i64, align 8
  %10 = alloca i64, align 8
  %11 = alloca %"class.std::reverse_iterator", align 8
  %12 = alloca %"class.std::reverse_iterator", align 8
  %13 = alloca %"class.std::reverse_iterator", align 8
  %14 = alloca %"struct.__gnu_cxx::__ops::_Iter_comp_iter.38", align 1
  %15 = alloca %"class.std::reverse_iterator", align 8
  %16 = alloca %"class.std::reverse_iterator", align 8
  %17 = alloca %"struct.__gnu_cxx::__ops::_Iter_comp_iter.38", align 1
  %18 = alloca %"class.std::reverse_iterator", align 8
  %19 = alloca %"class.std::reverse_iterator", align 8
  %20 = alloca %"struct.__gnu_cxx::__ops::_Iter_comp_iter.38", align 1
  %21 = alloca %"class.std::reverse_iterator", align 8
  %22 = alloca %"class.std::reverse_iterator", align 8
  %23 = alloca %"struct.__gnu_cxx::__ops::_Iter_comp_iter.38", align 1
  %24 = alloca %"class.std::reverse_iterator", align 8
  %25 = alloca %"class.std::reverse_iterator", align 8
  %26 = alloca %"class.std::reverse_iterator", align 8
  %27 = alloca %"struct.__gnu_cxx::__ops::_Iter_comp_iter.38", align 1
  store ptr %0, ptr %6, align 8, !tbaa !44
  store ptr %1, ptr %7, align 8, !tbaa !44
  store ptr %2, ptr %8, align 8, !tbaa !31
  store i64 %3, ptr %9, align 8, !tbaa !27
  call void @llvm.lifetime.start.p0(i64 8, ptr %10) #18
  %28 = call noundef i64 @_ZStmiIN9__gnu_cxx17__normal_iteratorIPP26cmCTestBinPackerAllocationSt6vectorIS3_SaIS3_EEEES8_EDTmicldtfp0_4baseEcldtfp_4baseEERKSt16reverse_iteratorIT_ERKSA_IT0_E(ptr noundef nonnull align 8 dereferenceable(8) %1, ptr noundef nonnull align 8 dereferenceable(8) %0)
  %29 = add nsw i64 %28, 1
  %30 = sdiv i64 %29, 2
  store i64 %30, ptr %10, align 8, !tbaa !27
  call void @llvm.lifetime.start.p0(i64 8, ptr %11) #18
  %31 = load i64, ptr %10, align 8, !tbaa !27
  call void @_ZNKSt16reverse_iteratorIN9__gnu_cxx17__normal_iteratorIPP26cmCTestBinPackerAllocationSt6vectorIS3_SaIS3_EEEEEplEl(ptr dead_on_unwind writable sret(%"class.std::reverse_iterator") align 8 %11, ptr noundef nonnull align 8 dereferenceable(8) %0, i64 noundef %31)
  %32 = load i64, ptr %10, align 8, !tbaa !27
  %33 = load i64, ptr %9, align 8, !tbaa !27
  %34 = icmp sgt i64 %32, %33
  br i1 %34, label %35, label %40

35:                                               ; preds = %4
  call void @_ZNSt16reverse_iteratorIN9__gnu_cxx17__normal_iteratorIPP26cmCTestBinPackerAllocationSt6vectorIS3_SaIS3_EEEEEC2ERKS9_(ptr noundef nonnull align 8 dereferenceable(8) %12, ptr noundef nonnull align 8 dereferenceable(8) %0) #18
  call void @_ZNSt16reverse_iteratorIN9__gnu_cxx17__normal_iteratorIPP26cmCTestBinPackerAllocationSt6vectorIS3_SaIS3_EEEEEC2ERKS9_(ptr noundef nonnull align 8 dereferenceable(8) %13, ptr noundef nonnull align 8 dereferenceable(8) %11) #18
  %36 = load ptr, ptr %8, align 8, !tbaa !31
  %37 = load i64, ptr %9, align 8, !tbaa !27
  call void @llvm.memcpy.p0.p0.i64(ptr align 1 %14, ptr align 1 %5, i64 1, i1 false), !tbaa.struct !84
  call void @_ZSt22__stable_sort_adaptiveISt16reverse_iteratorIN9__gnu_cxx17__normal_iteratorIPP26cmCTestBinPackerAllocationSt6vectorIS4_SaIS4_EEEEES5_lNS1_5__ops15_Iter_comp_iterIZN12_GLOBAL__N_122AllocateCTestResourcesINSD_23BlockAllocationStrategyEEEbRKSt3mapINSt7__cxx1112basic_stringIcSt11char_traitsIcESaIcEEEN24cmCTestResourceAllocator8ResourceESt4lessISM_ESaISt4pairIKSM_SO_EEERS6_IS3_SaIS3_EEEUlS4_S4_E_EEEvT_S13_T0_T1_T2_(ptr noundef %12, ptr noundef %13, ptr noundef %36, i64 noundef %37)
  call void @_ZNSt16reverse_iteratorIN9__gnu_cxx17__normal_iteratorIPP26cmCTestBinPackerAllocationSt6vectorIS3_SaIS3_EEEEEC2ERKS9_(ptr noundef nonnull align 8 dereferenceable(8) %15, ptr noundef nonnull align 8 dereferenceable(8) %11) #18
  call void @_ZNSt16reverse_iteratorIN9__gnu_cxx17__normal_iteratorIPP26cmCTestBinPackerAllocationSt6vectorIS3_SaIS3_EEEEEC2ERKS9_(ptr noundef nonnull align 8 dereferenceable(8) %16, ptr noundef nonnull align 8 dereferenceable(8) %1) #18
  %38 = load ptr, ptr %8, align 8, !tbaa !31
  %39 = load i64, ptr %9, align 8, !tbaa !27
  call void @llvm.memcpy.p0.p0.i64(ptr align 1 %17, ptr align 1 %5, i64 1, i1 false), !tbaa.struct !84
  call void @_ZSt22__stable_sort_adaptiveISt16reverse_iteratorIN9__gnu_cxx17__normal_iteratorIPP26cmCTestBinPackerAllocationSt6vectorIS4_SaIS4_EEEEES5_lNS1_5__ops15_Iter_comp_iterIZN12_GLOBAL__N_122AllocateCTestResourcesINSD_23BlockAllocationStrategyEEEbRKSt3mapINSt7__cxx1112basic_stringIcSt11char_traitsIcESaIcEEEN24cmCTestResourceAllocator8ResourceESt4lessISM_ESaISt4pairIKSM_SO_EEERS6_IS3_SaIS3_EEEUlS4_S4_E_EEEvT_S13_T0_T1_T2_(ptr noundef %15, ptr noundef %16, ptr noundef %38, i64 noundef %39)
  br label %43

40:                                               ; preds = %4
  call void @_ZNSt16reverse_iteratorIN9__gnu_cxx17__normal_iteratorIPP26cmCTestBinPackerAllocationSt6vectorIS3_SaIS3_EEEEEC2ERKS9_(ptr noundef nonnull align 8 dereferenceable(8) %18, ptr noundef nonnull align 8 dereferenceable(8) %0) #18
  call void @_ZNSt16reverse_iteratorIN9__gnu_cxx17__normal_iteratorIPP26cmCTestBinPackerAllocationSt6vectorIS3_SaIS3_EEEEEC2ERKS9_(ptr noundef nonnull align 8 dereferenceable(8) %19, ptr noundef nonnull align 8 dereferenceable(8) %11) #18
  %41 = load ptr, ptr %8, align 8, !tbaa !31
  call void @llvm.memcpy.p0.p0.i64(ptr align 1 %20, ptr align 1 %5, i64 1, i1 false), !tbaa.struct !84
  call void @_ZSt24__merge_sort_with_bufferISt16reverse_iteratorIN9__gnu_cxx17__normal_iteratorIPP26cmCTestBinPackerAllocationSt6vectorIS4_SaIS4_EEEEES5_NS1_5__ops15_Iter_comp_iterIZN12_GLOBAL__N_122AllocateCTestResourcesINSD_23BlockAllocationStrategyEEEbRKSt3mapINSt7__cxx1112basic_stringIcSt11char_traitsIcESaIcEEEN24cmCTestResourceAllocator8ResourceESt4lessISM_ESaISt4pairIKSM_SO_EEERS6_IS3_SaIS3_EEEUlS4_S4_E_EEEvT_S13_T0_T1_(ptr noundef %18, ptr noundef %19, ptr noundef %41)
  call void @_ZNSt16reverse_iteratorIN9__gnu_cxx17__normal_iteratorIPP26cmCTestBinPackerAllocationSt6vectorIS3_SaIS3_EEEEEC2ERKS9_(ptr noundef nonnull align 8 dereferenceable(8) %21, ptr noundef nonnull align 8 dereferenceable(8) %11) #18
  call void @_ZNSt16reverse_iteratorIN9__gnu_cxx17__normal_iteratorIPP26cmCTestBinPackerAllocationSt6vectorIS3_SaIS3_EEEEEC2ERKS9_(ptr noundef nonnull align 8 dereferenceable(8) %22, ptr noundef nonnull align 8 dereferenceable(8) %1) #18
  %42 = load ptr, ptr %8, align 8, !tbaa !31
  call void @llvm.memcpy.p0.p0.i64(ptr align 1 %23, ptr align 1 %5, i64 1, i1 false), !tbaa.struct !84
  call void @_ZSt24__merge_sort_with_bufferISt16reverse_iteratorIN9__gnu_cxx17__normal_iteratorIPP26cmCTestBinPackerAllocationSt6vectorIS4_SaIS4_EEEEES5_NS1_5__ops15_Iter_comp_iterIZN12_GLOBAL__N_122AllocateCTestResourcesINSD_23BlockAllocationStrategyEEEbRKSt3mapINSt7__cxx1112basic_stringIcSt11char_traitsIcESaIcEEEN24cmCTestResourceAllocator8ResourceESt4lessISM_ESaISt4pairIKSM_SO_EEERS6_IS3_SaIS3_EEEUlS4_S4_E_EEEvT_S13_T0_T1_(ptr noundef %21, ptr noundef %22, ptr noundef %42)
  br label %43

43:                                               ; preds = %40, %35
  call void @_ZNSt16reverse_iteratorIN9__gnu_cxx17__normal_iteratorIPP26cmCTestBinPackerAllocationSt6vectorIS3_SaIS3_EEEEEC2ERKS9_(ptr noundef nonnull align 8 dereferenceable(8) %24, ptr noundef nonnull align 8 dereferenceable(8) %0) #18
  call void @_ZNSt16reverse_iteratorIN9__gnu_cxx17__normal_iteratorIPP26cmCTestBinPackerAllocationSt6vectorIS3_SaIS3_EEEEEC2ERKS9_(ptr noundef nonnull align 8 dereferenceable(8) %25, ptr noundef nonnull align 8 dereferenceable(8) %11) #18
  call void @_ZNSt16reverse_iteratorIN9__gnu_cxx17__normal_iteratorIPP26cmCTestBinPackerAllocationSt6vectorIS3_SaIS3_EEEEEC2ERKS9_(ptr noundef nonnull align 8 dereferenceable(8) %26, ptr noundef nonnull align 8 dereferenceable(8) %1) #18
  %44 = call noundef i64 @_ZStmiIN9__gnu_cxx17__normal_iteratorIPP26cmCTestBinPackerAllocationSt6vectorIS3_SaIS3_EEEES8_EDTmicldtfp0_4baseEcldtfp_4baseEERKSt16reverse_iteratorIT_ERKSA_IT0_E(ptr noundef nonnull align 8 dereferenceable(8) %11, ptr noundef nonnull align 8 dereferenceable(8) %0)
  %45 = call noundef i64 @_ZStmiIN9__gnu_cxx17__normal_iteratorIPP26cmCTestBinPackerAllocationSt6vectorIS3_SaIS3_EEEES8_EDTmicldtfp0_4baseEcldtfp_4baseEERKSt16reverse_iteratorIT_ERKSA_IT0_E(ptr noundef nonnull align 8 dereferenceable(8) %1, ptr noundef nonnull align 8 dereferenceable(8) %11)
  %46 = load ptr, ptr %8, align 8, !tbaa !31
  %47 = load i64, ptr %9, align 8, !tbaa !27
  call void @llvm.memcpy.p0.p0.i64(ptr align 1 %27, ptr align 1 %5, i64 1, i1 false), !tbaa.struct !84
  call void @_ZSt16__merge_adaptiveISt16reverse_iteratorIN9__gnu_cxx17__normal_iteratorIPP26cmCTestBinPackerAllocationSt6vectorIS4_SaIS4_EEEEElS5_NS1_5__ops15_Iter_comp_iterIZN12_GLOBAL__N_122AllocateCTestResourcesINSD_23BlockAllocationStrategyEEEbRKSt3mapINSt7__cxx1112basic_stringIcSt11char_traitsIcESaIcEEEN24cmCTestResourceAllocator8ResourceESt4lessISM_ESaISt4pairIKSM_SO_EEERS6_IS3_SaIS3_EEEUlS4_S4_E_EEEvT_S13_S13_T0_S14_T1_S14_T2_(ptr noundef %24, ptr noundef %25, ptr noundef %26, i64 noundef %44, i64 noundef %45, ptr noundef %46, i64 noundef %47)
  call void @llvm.lifetime.end.p0(i64 8, ptr %11) #18
  call void @llvm.lifetime.end.p0(i64 8, ptr %10) #18
  ret void
}